target datalayout = "e-m:e-p270:32:32-p271:32:32-p272:64:64-i64:64-i128:128-f80:128-n8:16:32:64-S128"
target triple = "x86_64-pc-linux-gnu"

%struct.message = type { ptr, i32, i32, ptr, ptr, ptr, ptr, ptr, ptr, i64, i32, ptr, ptr, ptr, ptr, ptr, i8, i8, i8, i8, ptr }

@.str.11 = private unnamed_addr constant [90 x i8] c"Internal email parser error: message is pointer is NULL when trying to set MIME sub-type\0A\00", align 1
@.str.12 = private unnamed_addr constant [23 x i8] c"Empty content subtype\0A\00", align 1
@.str.13 = private unnamed_addr constant [1 x i8] zeroinitializer, align 1

; Function Attrs: nounwind uwtable
define void @messageSetMimeSubtype(ptr noundef %0, ptr noundef %1) #0 {
  %3 = alloca ptr, align 8
  %4 = alloca ptr, align 8
  store ptr %0, ptr %3, align 8
  store ptr %1, ptr %4, align 8
  %5 = load ptr, ptr %3, align 8
  %6 = icmp eq ptr %5, null
  br i1 %6, label %7, label %8

7:                                                ; preds = %2
  call void (ptr, ...) @cli_errmsg(ptr noundef @.str.11)
  br label %26

8:                                                ; preds = %2
  %9 = load ptr, ptr %4, align 8
  %10 = icmp eq ptr %9, null
  br i1 %10, label %11, label %12

11:                                               ; preds = %8
  call void (ptr, ...) @cli_dbgmsg(ptr noundef @.str.12)
  store ptr @.str.13, ptr %4, align 8
  br label %12

12:                                               ; preds = %11, %8
  %13 = load ptr, ptr %3, align 8
  %14 = getelementptr inbounds %struct.message, ptr %13, i32 0, i32 3
  %15 = load ptr, ptr %14, align 8
  %16 = icmp ne ptr %15, null
  br i1 %16, label %17, label %21

17:                                               ; preds = %12
  %18 = load ptr, ptr %3, align 8
  %19 = getelementptr inbounds %struct.message, ptr %18, i32 0, i32 3
  %20 = load ptr, ptr %19, align 8
  call void @free(ptr noundef %20) #11
  br label %21

21:                                               ; preds = %17, %12
  %22 = load ptr, ptr %4, align 8
  %23 = call ptr @cli_safer_strdup(ptr noundef %22)
  %24 = load ptr, ptr %3, align 8
  %25 = getelementptr inbounds %struct.message, ptr %24, i32 0, i32 3
  store ptr %23, ptr %25, align 8
  br label %26

26:                                               ; preds = %21, %7
  ret void
}