; Function Attrs: nounwind uwtable
define void @messageSetMimeSubtype(ptr noundef %0, ptr noundef %1) local_unnamed_addr #2 {
  %3 = icmp eq ptr %0, null
  br i1 %3, label %4, label %5

4:                                                ; preds = %2
  tail call void (ptr, ...) @cli_errmsg(ptr noundef nonnull @.str.11) #21
  br label %14

5:                                                ; preds = %2
  %6 = icmp eq ptr %1, null
  br i1 %6, label %7, label %8

7:                                                ; preds = %5
  tail call void (ptr, ...) @cli_dbgmsg(ptr noundef nonnull @.str.12) #21
  br label %8

8:                                                ; preds = %7, %5
  %.0 = phi ptr [ @.str.13, %7 ], [ %1, %5 ]
  %9 = getelementptr inbounds i8, ptr %0, i64 16
  %10 = load ptr, ptr %9, align 8
  %.not = icmp eq ptr %10, null
  br i1 %.not, label %12, label %11

11:                                               ; preds = %8
  tail call void @free(ptr noundef nonnull %10) #21
  br label %12

12:                                               ; preds = %11, %8
  %13 = tail call ptr @cli_safer_strdup(ptr noundef nonnull %.0) #21
  store ptr %13, ptr %9, align 8
  br label %14

14:                                               ; preds = %12, %4
  ret void
}